; Function Attrs: nounwind uwtable
define noalias nonnull ptr @l_Lean_IR_IsLive_visitJP___boxed(ptr noundef %0, ptr noundef %1, ptr noundef %2) local_unnamed_addr #0 {
  %4 = ptrtoint ptr %0 to i64
  %5 = ptrtoint ptr %1 to i64
  %6 = and i64 %4, 1
  %7 = and i64 %6, %5
  %or.cond.not.i = icmp eq i64 %7, 0
  br i1 %or.cond.not.i, label %.critedge.i.i, label %8, !prof !4

8:                                                ; preds = %3
  %9 = icmp eq ptr %0, %1
  br label %lean_nat_eq.exit.i

.critedge.i.i:                                    ; preds = %3
  %10 = tail call zeroext i1 @lean_nat_big_eq(ptr noundef %0, ptr noundef %1) #4
  br label %lean_nat_eq.exit.i

lean_nat_eq.exit.i:                               ; preds = %.critedge.i.i, %8
  %.0.i.i = phi i1 [ %9, %8 ], [ %10, %.critedge.i.i ]
  tail call void @lean_inc_heartbeat() #4
  %11 = tail call noalias ptr @mi_malloc_small(i64 noundef 24) #4
  %12 = icmp eq ptr %11, null
  br i1 %12, label %13, label %l_Lean_IR_IsLive_visitJP.exit

13:                                               ; preds = %lean_nat_eq.exit.i
  tail call void @lean_internal_panic_out_of_memory() #5
  unreachable

l_Lean_IR_IsLive_visitJP.exit:                    ; preds = %lean_nat_eq.exit.i
  %14 = select i1 %.0.i.i, ptr inttoptr (i64 3 to ptr), ptr inttoptr (i64 1 to ptr)
  %15 = getelementptr inbounds nuw i8, ptr %11, i64 4
  store i32 1, ptr %11, align 4, !tbaa !5
  store i32 131096, ptr %15, align 4
  %16 = getelementptr inbounds nuw i8, ptr %11, i64 8
  store ptr %14, ptr %16, align 8, !tbaa !10
  %17 = getelementptr inbounds nuw i8, ptr %11, i64 16
  store ptr %2, ptr %17, align 8, !tbaa !10
  %18 = and i64 %5, 1
  %.not = icmp eq i64 %18, 0
  br i1 %.not, label %19, label %lean_dec.exit6

19:                                               ; preds = %l_Lean_IR_IsLive_visitJP.exit
  %20 = load i32, ptr %1, align 4, !tbaa !5
  %21 = icmp sgt i32 %20, 1
  br i1 %21, label %22, label %24, !prof !14

22:                                               ; preds = %19
  %23 = add nsw i32 %20, -1
  store i32 %23, ptr %1, align 4, !tbaa !5
  br label %lean_dec.exit6

24:                                               ; preds = %19
  %.not.i = icmp eq i32 %20, 0
  br i1 %.not.i, label %lean_dec.exit6, label %25

25:                                               ; preds = %24
  tail call void @lean_dec_ref_cold(ptr noundef nonnull %1) #4
  br label %lean_dec.exit6

lean_dec.exit6:                                   ; preds = %25, %24, %22, %l_Lean_IR_IsLive_visitJP.exit
  %.not9 = icmp eq i64 %6, 0
  br i1 %.not9, label %26, label %lean_dec.exit

26:                                               ; preds = %lean_dec.exit6
  %27 = load i32, ptr %0, align 4, !tbaa !5
  %28 = icmp sgt i32 %27, 1
  br i1 %28, label %29, label %31, !prof !14

29:                                               ; preds = %26
  %30 = add nsw i32 %27, -1
  store i32 %30, ptr %0, align 4, !tbaa !5
  br label %lean_dec.exit

31:                                               ; preds = %26
  %.not.i7 = icmp eq i32 %27, 0
  br i1 %.not.i7, label %lean_dec.exit, label %32

32:                                               ; preds = %31
  tail call void @lean_dec_ref_cold(ptr noundef nonnull %0) #4
  br label %lean_dec.exit

lean_dec.exit:                                    ; preds = %32, %31, %29, %lean_dec.exit6
  ret ptr %11
}